target datalayout = "e-m:e-p270:32:32-p271:32:32-p272:64:64-i64:64-i128:128-f80:128-n8:16:32:64-S128"
target triple = "x86_64-pc-linux-gnu"

%struct.expert_field = type { i32, i32 }

@ei_pfcp_ie_data_not_decoded = internal global %struct.expert_field zeroinitializer, align 4
@dissect_pfcp_mbsn4mbreq_flags.pfcp_mbsn4mbreq_flags_o5_flags = internal constant [5 x ptr] [ptr @hf_pfcp_spare_b7_b2, ptr @hf_pfcp_mbsn4mbreq_flags_o5_b2_mbs_resti, ptr @hf_pfcp_mbsn4mbreq_flags_o5_b1_jmbssm, ptr @hf_pfcp_mbsn4mbreq_flags_o5_b0_pllssm, ptr null], align 16

; Function Attrs: null_pointer_is_valid sspstrong uwtable
define internal void @dissect_pfcp_mbsn4mbreq_flags(ptr noundef %0, ptr noundef %1, ptr noundef %2, ptr noundef %3, i16 noundef zeroext %4, i8 noundef zeroext %5, ptr noundef %6) #0 {
  %8 = alloca ptr, align 8
  %9 = alloca ptr, align 8
  %10 = alloca ptr, align 8
  %11 = alloca ptr, align 8
  %12 = alloca i16, align 2
  %13 = alloca i8, align 1
  %14 = alloca ptr, align 8
  %15 = alloca i32, align 4
  %16 = alloca i32, align 4
  store ptr %0, ptr %8, align 8
  store ptr %1, ptr %9, align 8
  store ptr %2, ptr %10, align 8
  store ptr %3, ptr %11, align 8
  store i16 %4, ptr %12, align 2
  store i8 %5, ptr %13, align 1
  store ptr %6, ptr %14, align 8
  call void @llvm.lifetime.start.p0(i64 4, ptr %15) #13
  store i32 0, ptr %15, align 4
  %17 = load ptr, ptr %10, align 8
  %18 = load ptr, ptr %8, align 8
  %19 = load i32, ptr %15, align 4
  call void @proto_tree_add_bitmask_list(ptr noundef %17, ptr noundef %18, i32 noundef %19, i32 noundef 1, ptr noundef @dissect_pfcp_mbsn4mbreq_flags.pfcp_mbsn4mbreq_flags_o5_flags, i32 noundef 0)
  %20 = load i32, ptr %15, align 4
  %21 = add i32 %20, 1
  store i32 %21, ptr %15, align 4
  %22 = load i32, ptr %15, align 4
  %23 = load i16, ptr %12, align 2
  %24 = zext i16 %23 to i32
  %25 = icmp eq i32 %22, %24
  br i1 %25, label %26, label %27

26:                                               ; preds = %7
  store i32 1, ptr %16, align 4
  br label %39

27:                                               ; preds = %7
  %28 = load i32, ptr %15, align 4
  %29 = load i16, ptr %12, align 2
  %30 = zext i16 %29 to i32
  %31 = icmp slt i32 %28, %30
  br i1 %31, label %32, label %38

32:                                               ; preds = %27
  %33 = load ptr, ptr %10, align 8
  %34 = load ptr, ptr %9, align 8
  %35 = load ptr, ptr %8, align 8
  %36 = load i32, ptr %15, align 4
  %37 = call ptr @proto_tree_add_expert(ptr noundef %33, ptr noundef %34, ptr noundef @ei_pfcp_ie_data_not_decoded, ptr noundef %35, i32 noundef %36, i32 noundef -1)
  br label %38

38:                                               ; preds = %32, %27
  store i32 0, ptr %16, align 4
  br label %39

39:                                               ; preds = %38, %26
  call void @llvm.lifetime.end.p0(i64 4, ptr %15) #13
  %40 = load i32, ptr %16, align 4
  switch i32 %40, label %42 [
    i32 0, label %41
    i32 1, label %41
  ]

41:                                               ; preds = %39, %39
  ret void

42:                                               ; preds = %39
  unreachable
}